target datalayout = "e-m:e-p270:32:32-p271:32:32-p272:64:64-i64:64-i128:128-f80:128-n8:16:32:64-S128"
target triple = "x86_64-pc-linux-gnu"

@hf_mpeg_descr_ca_system_id = internal global i32 0, align 4
@hf_mpeg_descr_ca_reserved = internal global i32 0, align 4
@hf_mpeg_descr_ca_pid = internal global i32 0, align 4
@hf_mpeg_descr_ca_private = internal global i32 0, align 4

; Function Attrs: null_pointer_is_valid sspstrong uwtable
define internal void @proto_mpeg_descriptor_dissect_ca(ptr noundef %0, i32 noundef %1, i32 noundef %2, ptr noundef %3) #1 {
  %5 = alloca ptr, align 8
  %6 = alloca i32, align 4
  %7 = alloca i32, align 4
  %8 = alloca ptr, align 8
  store ptr %0, ptr %5, align 8
  store i32 %1, ptr %6, align 4
  store i32 %2, ptr %7, align 4
  store ptr %3, ptr %8, align 8
  %9 = load ptr, ptr %8, align 8
  %10 = load i32, ptr @hf_mpeg_descr_ca_system_id, align 4
  %11 = load ptr, ptr %5, align 8
  %12 = load i32, ptr %6, align 4
  %13 = call ptr @proto_tree_add_item(ptr noundef %9, i32 noundef %10, ptr noundef %11, i32 noundef %12, i32 noundef 2, i32 noundef 0)
  %14 = load i32, ptr %6, align 4
  %15 = add i32 %14, 2
  store i32 %15, ptr %6, align 4
  %16 = load ptr, ptr %8, align 8
  %17 = load i32, ptr @hf_mpeg_descr_ca_reserved, align 4
  %18 = load ptr, ptr %5, align 8
  %19 = load i32, ptr %6, align 4
  %20 = call ptr @proto_tree_add_item(ptr noundef %16, i32 noundef %17, ptr noundef %18, i32 noundef %19, i32 noundef 2, i32 noundef 0)
  %21 = load ptr, ptr %8, align 8
  %22 = load i32, ptr @hf_mpeg_descr_ca_pid, align 4
  %23 = load ptr, ptr %5, align 8
  %24 = load i32, ptr %6, align 4
  %25 = call ptr @proto_tree_add_item(ptr noundef %21, i32 noundef %22, ptr noundef %23, i32 noundef %24, i32 noundef 2, i32 noundef 0)
  %26 = load i32, ptr %6, align 4
  %27 = add i32 %26, 2
  store i32 %27, ptr %6, align 4
  %28 = load i32, ptr %7, align 4
  %29 = icmp ugt i32 %28, 4
  br i1 %29, label %30, label %38

30:                                               ; preds = %4
  %31 = load ptr, ptr %8, align 8
  %32 = load i32, ptr @hf_mpeg_descr_ca_private, align 4
  %33 = load ptr, ptr %5, align 8
  %34 = load i32, ptr %6, align 4
  %35 = load i32, ptr %7, align 4
  %36 = sub i32 %35, 4
  %37 = call ptr @proto_tree_add_item(ptr noundef %31, i32 noundef %32, ptr noundef %33, i32 noundef %34, i32 noundef %36, i32 noundef 0)
  br label %38

38:                                               ; preds = %30, %4
  ret void
}