; Function Attrs: null_pointer_is_valid sspstrong uwtable
define internal fastcc void @proto_mpeg_descriptor_dissect_ca(ptr noundef %0, i32 noundef %1, i32 noundef range(i32 1, 256) %2, ptr noundef %3) unnamed_addr #1 {
  %5 = load i32, ptr @hf_mpeg_descr_ca_system_id, align 4
  %6 = tail call ptr @proto_tree_add_item(ptr noundef %3, i32 noundef %5, ptr noundef %0, i32 noundef %1, i32 noundef 2, i32 noundef 0)
  %7 = add i32 %1, 2
  %8 = load i32, ptr @hf_mpeg_descr_ca_reserved, align 4
  %9 = tail call ptr @proto_tree_add_item(ptr noundef %3, i32 noundef %8, ptr noundef %0, i32 noundef %7, i32 noundef 2, i32 noundef 0)
  %10 = load i32, ptr @hf_mpeg_descr_ca_pid, align 4
  %11 = tail call ptr @proto_tree_add_item(ptr noundef %3, i32 noundef %10, ptr noundef %0, i32 noundef %7, i32 noundef 2, i32 noundef 0)
  %12 = icmp samesign ugt i32 %2, 4
  br i1 %12, label %13, label %18

13:                                               ; preds = %4
  %14 = add i32 %1, 4
  %15 = load i32, ptr @hf_mpeg_descr_ca_private, align 4
  %16 = add nsw i32 %2, -4
  %17 = tail call ptr @proto_tree_add_item(ptr noundef %3, i32 noundef %15, ptr noundef %0, i32 noundef %14, i32 noundef %16, i32 noundef 0)
  br label %18

18:                                               ; preds = %13, %4
  ret void
}